Microchip MPLAB XC8 Compiler V1.44 ()

Linker command line:

-W-3 --edf=C:\Program Files (x86)\Microchip\xc8\v1.44\dat\en_msgs.txt -cs \
  -h+dist/default/production\ProjectLibraryI2C.X.production.sym \
  --cmf=dist/default/production\ProjectLibraryI2C.X.production.cmf -z \
  -Q16F877 -oC:\Users\DANTE_~1\AppData\Local\Temp\s5fs.2 \
  -Mdist/default/production/ProjectLibraryI2C.X.production.map -E1 -ver=XC8 \
  -ASTACK=0110h-016fh -pstack=STACK -ACODE=00h-07FFhx4 -ASTRCODE=00h-01FFFh \
  -ASTRING=00h-0FFhx32 -ACONST=00h-0FFhx32 -AENTRY=00h-0FFhx32 \
  -ACOMMON=070h-07Fh -ABANK0=020h-06Fh -ABANK1=0A0h-0EFh \
  -ABANK2=0110h-016Fh -ABANK3=0190h-01EFh \
  -ARAM=020h-06Fh,0A0h-0EFh,0110h-016Fh,0190h-01EFh \
  -AABS1=020h-07Fh,0A0h-0EFh,0110h-016Fh,0190h-01EFh -ASFR0=00h-01Fh \
  -ASFR1=080h-09Fh -ASFR2=0100h-010Fh -ASFR3=0180h-018Fh \
  -preset_vec=00h,intentry,init,end_init -ppowerup=CODE -pcinit=CODE \
  -pfunctab=ENTRY -ACONFIG=02007h-02007h -pconfig=CONFIG -DCONFIG=2 \
  -AIDLOC=02000h-02003h -pidloc=IDLOC -DIDLOC=2 -AEEDATA=00h-0FFh/02100h \
  -peeprom_data=EEDATA -DEEDATA=2 -DCODE=2 -DSTRCODE=2 -DSTRING=2 -DCONST=2 \
  -DENTRY=2 -k C:\Users\DANTE_~1\AppData\Local\Temp\s5fs.obj \
  dist/default/production\ProjectLibraryI2C.X.production.obj 

Object code version is 3.11

Machine type is 16F877



                Name                               Link     Load   Length Selector   Space Scale
C:\Users\DANTE_~1\AppData\Local\Temp\s5fs.obj
                end_init                              0        0        3        0       0
                config                             2007     2007        1     400E       0
dist/default/production\ProjectLibraryI2C.X.production.obj
                cinit                               7F8      7F8        8      FF0       0
                text21                              41C      41C       5E      838       0
                text20                              31A      31A       36      634       0
                text19                              282      282       11      504       0
                text18                              293      293       1A      526       0
                text17                              26A      26A        B      4D4       0
                text16                              252      252        7      4A4       0
                text15                              259      259        7      4B2       0
                text14                              2C8      2C8       20      590       0
                text13                              246      246        6      48C       0
                text12                              24C      24C        6      498       0
                text11                              275      275        D      4EA       0
                text10                              47A      47A       7F      8F4       0
                text9                               2AD      2AD       1B      55A       0
                text8                               3C2      3C2       5A      784       0
                text7                               4F9      4F9       8F      9F2       0
                text6                               70D      70D       EB      E1A       0
                text5                               260      260        A      4C0       0
                text4                               350      350       36      6A0       0
                text3                               386      386       3C      70C       0
                text2                               2E8      2E8       32      5D0       0
                text1                               588      588       BD      B10       0
                maintext                            645      645       C8      C8A       0
                cstackBANK0                          20       20       50       20       1
                cstackCOMMON                         70       70        E       70       1
                bssBANK1                             A0       A0        2       A0       1
                strings                               3        3       35        6       0

TOTAL           Name                               Link     Load   Length     Space
        CLASS   STACK          

        CLASS   CODE           
                end_init                              0        0        3         0
                cinit                               7F8      7F8        8         0
                text21                              41C      41C       5E         0
                text20                              31A      31A       36         0
                text19                              282      282       11         0
                text18                              293      293       1A         0
                text17                              26A      26A        B         0
                text16                              252      252        7         0
                text15                              259      259        7         0
                text14                              2C8      2C8       20         0
                text13                              246      246        6         0
                text12                              24C      24C        6         0
                text11                              275      275        D         0
                text10                              47A      47A       7F         0
                text9                               2AD      2AD       1B         0
                text8                               3C2      3C2       5A         0
                text7                               4F9      4F9       8F         0
                text6                               70D      70D       EB         0
                text5                               260      260        A         0
                text4                               350      350       36         0
                text3                               386      386       3C         0
                text2                               2E8      2E8       32         0
                text1                               588      588       BD         0
                maintext                            645      645       C8         0

        CLASS   STRCODE        

        CLASS   STRING         
                strings                               3        3       35         0

        CLASS   CONST          

        CLASS   ENTRY          

        CLASS   COMMON         
                cstackCOMMON                         70       70        E         1

        CLASS   BANK0          
                cstackBANK0                          20       20       50         1

        CLASS   BANK1          
                bssBANK1                             A0       A0        2         1

        CLASS   BANK2          

        CLASS   BANK3          

        CLASS   RAM            

        CLASS   ABS1           
                abs_s1                               7E       7E        2         1

        CLASS   SFR0           

        CLASS   SFR1           

        CLASS   SFR2           

        CLASS   SFR3           

        CLASS   CONFIG         
                config                             2007     2007        1         0

        CLASS   IDLOC          

        CLASS   EEDATA         



SEGMENTS        Name                           Load    Length   Top    Selector   Space  Class     Delta

                reset_vec                      000000  000003  000003         0       0  CODE        2
                strings                        000003  000035  000038         6       0  STRING      2
                cstackBANK0                    000020  000050  000070        20       1  BANK0       1
                cstackCOMMON                   000070  00000E  00007E        70       1  COMMON      1
                bssBANK1                       0000A0  000002  0000A2        A0       1  BANK1       1
                text13                         000246  000006  00024C       48C       0  CODE        2
                text12                         00024C  000006  000252       498       0  CODE        2
                text16                         000252  000007  000259       4A4       0  CODE        2
                text15                         000259  000007  000260       4B2       0  CODE        2
                text5                          000260  00000A  00026A       4C0       0  CODE        2
                text17                         00026A  00000B  000275       4D4       0  CODE        2
                text11                         000275  00000D  000282       4EA       0  CODE        2
                text19                         000282  000011  000293       504       0  CODE        2
                text18                         000293  00001A  0002AD       526       0  CODE        2
                text9                          0002AD  00001B  0002C8       55A       0  CODE        2
                text14                         0002C8  000020  0002E8       590       0  CODE        2
                text2                          0002E8  000032  00031A       5D0       0  CODE        2
                text20                         00031A  000036  000350       634       0  CODE        2
                text4                          000350  000036  000386       6A0       0  CODE        2
                text3                          000386  00003C  0003C2       70C       0  CODE        2
                text8                          0003C2  00005A  00041C       784       0  CODE        2
                text21                         00041C  00005E  00047A       838       0  CODE        2
                text10                         00047A  00007F  0004F9       8F4       0  CODE        2
                text7                          0004F9  00008F  000588       9F2       0  CODE        2
                text1                          000588  0000BD  000645       B10       0  CODE        2
                maintext                       000645  0000C8  00070D       C8A       0  CODE        2
                text6                          00070D  0000EB  0007F8       E1A       0  CODE        2
                cinit                          0007F8  000008  000800       FF0       0  CODE        2
                config                         002007  000001  002008      400E       0  CONFIG      2


UNUSED ADDRESS RANGES

        Name                Unused          Largest block    Delta
        BANK1            00A2-00EF             4E           1
        BANK2            0110-016F             60           1
        BANK3            0190-01EF             60           1
        CODE             0038-0245            20E           2
                         0800-1FFF            800
        CONST            0038-0245            100           2
                         0800-1FFF            100
        EEDATA           2100-21FF            100           2
        ENTRY            0038-0245            100           2
                         0800-1FFF            100
        IDLOC            2000-2003              4           2
        RAM              00A2-00EF             4E           1
                         0110-016F             60
                         0190-01EF             60
        SFR0             0000-001F             20           1
        SFR1             0080-009F             20           1
        SFR2             0100-010F             10           1
        SFR3             0180-018F             10           1
        STACK            0110-016F             60           1
        STRCODE          0038-0245            20E           2
                         0800-1FFF           1800
        STRING           0038-0245            100           2
                         0800-1FFF            100

                                  Symbol Table

?___aldiv                    cstackCOMMON 0070
?___lldiv                    cstackCOMMON 0070
?___lwdiv                    cstackCOMMON 0070
?___lwmod                    cstackCOMMON 0078
?_sprintf                    cstackBANK0  0020
I2C_Master_Init@c            cstackBANK0  0020
I2C_Master_Read@a            cstackCOMMON 0071
I2C_Master_Read@v_i2cData_u8 cstackCOMMON 0072
I2C_Write_Byte@data          cstackCOMMON 0070
RTC_ConvertFromDec@c         cstackCOMMON 0079
RTC_ConvertFromDec@ch        cstackCOMMON 0078
RTC_GetDateTime@rtc          cstackCOMMON 0074
RTC_SetDateTime@rtc          cstackCOMMON 0071
Transmit_char@data           cstackCOMMON 0070
USART_Init@baud              cstackBANK0  0026
USART_Init@x                 cstackCOMMON 0079
Usart_PrintString@Text       cstackCOMMON 0071
Usart_PrintString@i          cstackCOMMON 0074
_ACKDT                       (abs)        048D
_ACKEN                       (abs)        048C
_BF                          (abs)        04A0
_BRGH                        (abs)        04C2
_CREN                        (abs)        00C4
_I2C_Master_Init             text20       031A
_I2C_Master_Read             text14       02C8
_I2C_Master_Start            text13       0246
_I2C_Master_Stop             text12       024C
_I2C_Master_Wait             text17       026A
_I2C_Write_Byte              text11       0275
_PEN                         (abs)        048A
_RCEN                        (abs)        048B
_RCIF                        (abs)        0065
_RCREG                       (abs)        001A
_RSEN                        (abs)        0489
_RTC_ConvertFromDec          text18       0293
_RTC_GetDateTime             text10       047A
_RTC_Init                    text9        02AD
_RTC_SetDateTime             text8        03C2
_R_W                         (abs)        04A2
_SEN                         (abs)        0488
_SPBRG                       (abs)        0099
_SPEN                        (abs)        00C7
_SSPADD                      (abs)        0093
_SSPBUF                      (abs)        0013
_SSPCON                      (abs)        0014
_SSPCON2                     (abs)        0091
_SSPSTAT                     (abs)        0094
_SYNC                        (abs)        04C4
_TRISC3                      (abs)        043B
_TRISC4                      (abs)        043C
_TRISC6                      (abs)        043E
_TRISC7                      (abs)        043F
_TRMT                        (abs)        04C1
_TXEN                        (abs)        04C5
_TXREG                       (abs)        0019
_Transmit_char               text5        0260
_USART_Init                  text6        070D
_Usart_PrintString           text4        0350
__CFG_BOREN$OFF              (abs)        0000
__CFG_CP$OFF                 (abs)        0000
__CFG_CPD$OFF                (abs)        0000
__CFG_FOSC$XT                (abs)        0000
__CFG_LVP$OFF                (abs)        0000
__CFG_PWRTE$OFF              (abs)        0000
__CFG_WDTE$OFF               (abs)        0000
__CFG_WRT$OFF                (abs)        0000
__Habs1                      abs1         0000
__Hbank0                     bank0        0000
__Hbank1                     bank1        0000
__Hbank2                     bank2        0000
__Hbank3                     bank3        0000
__HbssBANK1                  bssBANK1     0000
__Hcinit                     cinit        0800
__Hclrtext                   clrtext      0000
__Hcode                      code         0000
__Hcommon                    common       0000
__Hconfig                    config       2008
__HcstackBANK0               cstackBANK0  0000
__HcstackCOMMON              cstackCOMMON 0000
__Heeprom_data               eeprom_data  0000
__Hend_init                  end_init     0003
__Hfunctab                   functab      0000
__Hidloc                     idloc        0000
__Hinit                      init         0000
__Hintentry                  intentry     0000
__Hmaintext                  maintext     0000
__Hpowerup                   powerup      0000
__Hram                       ram          0000
__Hreset_vec                 reset_vec    0000
__Hsfr0                      sfr0         0000
__Hsfr1                      sfr1         0000
__Hsfr2                      sfr2         0000
__Hsfr3                      sfr3         0000
__Hspace_0                   (abs)        2008
__Hspace_1                   (abs)        00A2
__Hspace_2                   (abs)        0000
__Hspace_3                   (abs)        0000
__Hstack                     stack        0000
__Hstrings                   strings      0000
__Htext                      text         0000
__Labs1                      abs1         0000
__Lbank0                     bank0        0000
__Lbank1                     bank1        0000
__Lbank2                     bank2        0000
__Lbank3                     bank3        0000
__LbssBANK1                  bssBANK1     0000
__Lcinit                     cinit        07F8
__Lclrtext                   clrtext      0000
__Lcode                      code         0000
__Lcommon                    common       0000
__Lconfig                    config       2007
__LcstackBANK0               cstackBANK0  0000
__LcstackCOMMON              cstackCOMMON 0000
__Leeprom_data               eeprom_data  0000
__Lend_init                  end_init     0000
__Lfunctab                   functab      0000
__Lidloc                     idloc        0000
__Linit                      init         0000
__Lintentry                  intentry     0000
__Lmaintext                  maintext     0000
__Lpowerup                   powerup      0000
__Lram                       ram          0000
__Lreset_vec                 reset_vec    0000
__Lsfr0                      sfr0         0000
__Lsfr1                      sfr1         0000
__Lsfr2                      sfr2         0000
__Lsfr3                      sfr3         0000
__Lspace_0                   (abs)        0000
__Lspace_1                   (abs)        0000
__Lspace_2                   (abs)        0000
__Lspace_3                   (abs)        0000
__Lstack                     stack        0000
__Lstrings                   strings      0000
__Ltext                      text         0000
__S0                         (abs)        2008
__S1                         (abs)        00A2
__S2                         (abs)        0000
__S3                         (abs)        0000
___aldiv                     text7        04F9
___aldiv@counter             cstackBANK0  0020
___aldiv@dividend            cstackCOMMON 0074
___aldiv@divisor             cstackCOMMON 0070
___aldiv@quotient            cstackBANK0  0022
___aldiv@sign                cstackBANK0  0021
___bmul                      text19       0282
___bmul@multiplicand         cstackCOMMON 0070
___bmul@multiplier           cstackCOMMON 0073
___bmul@product              cstackCOMMON 0072
___int_sp                    stack        0000
___latbits                   (abs)        0002
___lldiv                     text21       041C
___lldiv@counter             cstackCOMMON 007D
___lldiv@dividend            cstackCOMMON 0074
___lldiv@divisor             cstackCOMMON 0070
___lldiv@quotient            cstackCOMMON 0079
___lwdiv                     text3        0386
___lwdiv@counter             cstackCOMMON 0077
___lwdiv@dividend            cstackCOMMON 0072
___lwdiv@divisor             cstackCOMMON 0070
___lwdiv@quotient            cstackCOMMON 0075
___lwmod                     text2        02E8
___lwmod@counter             cstackCOMMON 007D
___lwmod@dividend            cstackCOMMON 007A
___lwmod@divisor             cstackCOMMON 0078
___sp                        stack        0000
__end_of_I2C_Master_Init     text20       0350
__end_of_I2C_Master_Read     text14       02E8
__end_of_I2C_Master_Start    text13       024C
__end_of_I2C_Master_Stop     text12       0252
__end_of_I2C_Master_Wait     text17       0275
__end_of_I2C_Write_Byte      text11       0282
__end_of_RTC_ConvertFromDec  text18       02AD
__end_of_RTC_GetDateTime     text10       04F9
__end_of_RTC_Init            text9        02C8
__end_of_RTC_SetDateTime     text8        041C
__end_of_Transmit_char       text5        026A
__end_of_USART_Init          text6        07F8
__end_of_Usart_PrintString   text4        0386
__end_of___aldiv             text7        0588
__end_of___bmul              text19       0293
__end_of___lldiv             text21       047A
__end_of___lwdiv             text3        03C2
__end_of___lwmod             text2        031A
__end_of__initialization     cinit        07FC
__end_of__stringtab          strings      0013
__end_of_dpowers             strings      001D
__end_of_i2c_Ack             text16       0259
__end_of_i2c_NoAck           text15       0260
__end_of_main                maintext     070D
__end_of_sprintf             text1        0645
__initialization             cinit        07F8
__pbssBANK1                  bssBANK1     00A0
__pcstackBANK0               cstackBANK0  0020
__pcstackCOMMON              cstackCOMMON 0070
__pmaintext                  maintext     0645
__pstrings                   strings      0003
__ptext1                     text1        0588
__ptext10                    text10       047A
__ptext11                    text11       0275
__ptext12                    text12       024C
__ptext13                    text13       0246
__ptext14                    text14       02C8
__ptext15                    text15       0259
__ptext16                    text16       0252
__ptext17                    text17       026A
__ptext18                    text18       0293
__ptext19                    text19       0282
__ptext2                     text2        02E8
__ptext20                    text20       031A
__ptext21                    text21       041C
__ptext3                     text3        0386
__ptext4                     text4        0350
__ptext5                     text5        0260
__ptext6                     text6        070D
__ptext7                     text7        04F9
__ptext8                     text8        03C2
__ptext9                     text9        02AD
__size_of_I2C_Master_Init    (abs)        0000
__size_of_I2C_Master_Read    (abs)        0000
__size_of_I2C_Master_Start   (abs)        0000
__size_of_I2C_Master_Stop    (abs)        0000
__size_of_I2C_Master_Wait    (abs)        0000
__size_of_I2C_Write_Byte     (abs)        0000
__size_of_RTC_ConvertFromDec (abs)        0000
__size_of_RTC_GetDateTime    (abs)        0000
__size_of_RTC_Init           (abs)        0000
__size_of_RTC_SetDateTime    (abs)        0000
__size_of_Transmit_char      (abs)        0000
__size_of_USART_Init         (abs)        0000
__size_of_Usart_PrintString  (abs)        0000
__size_of___aldiv            (abs)        0000
__size_of___bmul             (abs)        0000
__size_of___lldiv            (abs)        0000
__size_of___lwdiv            (abs)        0000
__size_of___lwmod            (abs)        0000
__size_of_i2c_Ack            (abs)        0000
__size_of_i2c_NoAck          (abs)        0000
__size_of_main               (abs)        0000
__size_of_sprintf            (abs)        0000
__stringbase                 strings      0012
__stringtab                  strings      0003
_dpowers                     strings      0013
_i2c_Ack                     text16       0252
_i2c_NoAck                   text15       0259
_main                        maintext     0645
_sprintf                     text1        0588
btemp                        (abs)        007E
end_of_initialization        cinit        07FC
intlevel0                    functab      0000
intlevel1                    functab      0000
intlevel2                    functab      0000
intlevel3                    functab      0000
intlevel4                    functab      0000
intlevel5                    functab      0000
main@buffer                  cstackBANK0  003D
main@hour                    cstackBANK0  0068
main@min                     cstackBANK0  0067
main@rtc                     cstackBANK0  0069
main@sec                     cstackBANK0  0066
main@status                  cstackBANK0  0065
reset_vec                    reset_vec    0000
sprintf@ap                   cstackBANK0  002B
sprintf@c                    cstackBANK0  0030
sprintf@f                    cstackBANK0  0020
sprintf@flag                 cstackBANK0  002A
sprintf@prec                 cstackBANK0  002E
sprintf@sp                   cstackBANK0  002F
sprintf@val                  cstackBANK0  002C
stackhi                      (abs)        0000
stacklo                      (abs)        0000
start                        init         0000
start_initialization         cinit        07F8
wtemp0                       (abs)        007E


FUNCTION INFORMATION:

 *************** function _main *****************
 Defined at:
		line 31 in file "main.c"
 Parameters:    Size  Location     Type
		None
 Auto vars:     Size  Location     Type
  buffer         40   29[BANK0 ] unsigned char [40]
  rtc             7   73[BANK0 ] struct .
  hour            1   72[BANK0 ] unsigned char 
  min             1   71[BANK0 ] unsigned char 
  sec             1   70[BANK0 ] unsigned char 
  status          1   69[BANK0 ] unsigned char 
 Return value:  Size  Location     Type
                  1    wreg      void 
 Registers used:
		wreg, fsr0l, fsr0h, status,2, status,0, btemp+1, pclath, cstack
 Tracked objects:
		On entry : 
		On exit  : 
		Unchanged: 
 Data sizes:     COMMON   BANK0   BANK1   BANK3   BANK2
      Params:         0       0       0       0       0
      Locals:         0      51       0       0       0
      Temps:          0       7       0       0       0
      Totals:         0      58       0       0       0
Total ram usage:       58 bytes
 Hardware stack levels required when called:    3
 This function calls:
		_I2C_Master_Init
		_RTC_ConvertFromDec
		_RTC_GetDateTime
		_RTC_Init
		_RTC_SetDateTime
		_Transmit_char
		_USART_Init
		_Usart_PrintString
		_sprintf
 This function is called by:
		Startup code after reset
 This function uses a non-reentrant model


 *************** function _sprintf *****************
 Defined at:
		line 492 in file "C:\Program Files (x86)\Microchip\xc8\v1.44\sources\common\doprnt.c"
 Parameters:    Size  Location     Type
  sp              1    wreg     PTR unsigned char 
		 -> main@buffer(40), 
  f               1    0[BANK0 ] PTR const unsigned char 
		 -> STR_2(19), 
 Auto vars:     Size  Location     Type
  sp              1   15[BANK0 ] PTR unsigned char 
		 -> main@buffer(40), 
  tmpval          4    0        struct .
  val             2   12[BANK0 ] unsigned int 
  cp              2    0        PTR const unsigned char 
  len             2    0        unsigned int 
  c               1   16[BANK0 ] char 
  prec            1   14[BANK0 ] char 
  ap              1   11[BANK0 ] PTR void [1]
		 -> ?_sprintf(2), 
  flag            1   10[BANK0 ] unsigned char 
 Return value:  Size  Location     Type
                  2    0[BANK0 ] int 
 Registers used:
		wreg, fsr0l, fsr0h, status,2, status,0, btemp+1, pclath, cstack
 Tracked objects:
		On entry : 
		On exit  : 
		Unchanged: 
 Data sizes:     COMMON   BANK0   BANK1   BANK3   BANK2
      Params:         0       7       0       0       0
      Locals:         0       7       0       0       0
      Temps:          0       3       0       0       0
      Totals:         0      17       0       0       0
Total ram usage:       17 bytes
 Hardware stack levels used:    1
 Hardware stack levels required when called:    1
 This function calls:
		___lwdiv
		___lwmod
 This function is called by:
		_main
 This function uses a non-reentrant model


 *************** function ___lwmod *****************
 Defined at:
		line 6 in file "C:\Program Files (x86)\Microchip\xc8\v1.44\sources\common\lwmod.c"
 Parameters:    Size  Location     Type
  divisor         2    8[COMMON] unsigned int 
  dividend        2   10[COMMON] unsigned int 
 Auto vars:     Size  Location     Type
  counter         1   13[COMMON] unsigned char 
 Return value:  Size  Location     Type
                  2    8[COMMON] unsigned int 
 Registers used:
		wreg, status,2, status,0
 Tracked objects:
		On entry : 
		On exit  : 
		Unchanged: 
 Data sizes:     COMMON   BANK0   BANK1   BANK3   BANK2
      Params:         4       0       0       0       0
      Locals:         1       0       0       0       0
      Temps:          1       0       0       0       0
      Totals:         6       0       0       0       0
Total ram usage:        6 bytes
 Hardware stack levels used:    1
 This function calls:
		Nothing
 This function is called by:
		_sprintf
 This function uses a non-reentrant model


 *************** function ___lwdiv *****************
 Defined at:
		line 6 in file "C:\Program Files (x86)\Microchip\xc8\v1.44\sources\common\lwdiv.c"
 Parameters:    Size  Location     Type
  divisor         2    0[COMMON] unsigned int 
  dividend        2    2[COMMON] unsigned int 
 Auto vars:     Size  Location     Type
  quotient        2    5[COMMON] unsigned int 
  counter         1    7[COMMON] unsigned char 
 Return value:  Size  Location     Type
                  2    0[COMMON] unsigned int 
 Registers used:
		wreg, status,2, status,0
 Tracked objects:
		On entry : 
		On exit  : 
		Unchanged: 
 Data sizes:     COMMON   BANK0   BANK1   BANK3   BANK2
      Params:         4       0       0       0       0
      Locals:         3       0       0       0       0
      Temps:          1       0       0       0       0
      Totals:         8       0       0       0       0
Total ram usage:        8 bytes
 Hardware stack levels used:    1
 This function calls:
		Nothing
 This function is called by:
		_sprintf
 This function uses a non-reentrant model


 *************** function _Usart_PrintString *****************
 Defined at:
		line 58 in file "USART.c"
 Parameters:    Size  Location     Type
  Text            2    1[COMMON] PTR unsigned char 
		 -> main@buffer(40), STR_1(8), 
 Auto vars:     Size  Location     Type
  i               1    4[COMMON] unsigned char 
 Return value:  Size  Location     Type
                  1    wreg      void 
 Registers used:
		wreg, fsr0l, fsr0h, status,2, status,0, btemp+1, pclath, cstack
 Tracked objects:
		On entry : 
		On exit  : 
		Unchanged: 
 Data sizes:     COMMON   BANK0   BANK1   BANK3   BANK2
      Params:         2       0       0       0       0
      Locals:         1       0       0       0       0
      Temps:          1       0       0       0       0
      Totals:         4       0       0       0       0
Total ram usage:        4 bytes
 Hardware stack levels used:    1
 Hardware stack levels required when called:    1
 This function calls:
		_Transmit_char
 This function is called by:
		_main
 This function uses a non-reentrant model


 *************** function _Transmit_char *****************
 Defined at:
		line 37 in file "USART.c"
 Parameters:    Size  Location     Type
  data            1    wreg     unsigned char 
 Auto vars:     Size  Location     Type
  data            1    0[COMMON] unsigned char 
 Return value:  Size  Location     Type
                  1    wreg      void 
 Registers used:
		wreg
 Tracked objects:
		On entry : 
		On exit  : 
		Unchanged: 
 Data sizes:     COMMON   BANK0   BANK1   BANK3   BANK2
      Params:         0       0       0       0       0
      Locals:         1       0       0       0       0
      Temps:          0       0       0       0       0
      Totals:         1       0       0       0       0
Total ram usage:        1 bytes
 Hardware stack levels used:    1
 This function calls:
		Nothing
 This function is called by:
		_main
		_Usart_PrintString
 This function uses a non-reentrant model


 *************** function _USART_Init *****************
 Defined at:
		line 8 in file "USART.c"
 Parameters:    Size  Location     Type
  baud            4    6[BANK0 ] long 
 Auto vars:     Size  Location     Type
  x               2    9[COMMON] unsigned int 
 Return value:  Size  Location     Type
                  1    wreg      unsigned char 
 Registers used:
		wreg, status,2, status,0, pclath, cstack
 Tracked objects:
		On entry : 
		On exit  : 
		Unchanged: 
 Data sizes:     COMMON   BANK0   BANK1   BANK3   BANK2
      Params:         0       4       0       0       0
      Locals:         2       0       0       0       0
      Temps:          0      12       0       0       0
      Totals:         2      16       0       0       0
Total ram usage:       18 bytes
 Hardware stack levels used:    1
 Hardware stack levels required when called:    1
 This function calls:
		___aldiv
 This function is called by:
		_main
 This function uses a non-reentrant model


 *************** function ___aldiv *****************
 Defined at:
		line 6 in file "C:\Program Files (x86)\Microchip\xc8\v1.44\sources\common\aldiv.c"
 Parameters:    Size  Location     Type
  divisor         4    0[COMMON] long 
  dividend        4    4[COMMON] long 
 Auto vars:     Size  Location     Type
  quotient        4    2[BANK0 ] long 
  sign            1    1[BANK0 ] unsigned char 
  counter         1    0[BANK0 ] unsigned char 
 Return value:  Size  Location     Type
                  4    0[COMMON] long 
 Registers used:
		wreg, status,2, status,0
 Tracked objects:
		On entry : 
		On exit  : 
		Unchanged: 
 Data sizes:     COMMON   BANK0   BANK1   BANK3   BANK2
      Params:         8       0       0       0       0
      Locals:         0       6       0       0       0
      Temps:          1       0       0       0       0
      Totals:         9       6       0       0       0
Total ram usage:       15 bytes
 Hardware stack levels used:    1
 This function calls:
		Nothing
 This function is called by:
		_USART_Init
 This function uses a non-reentrant model


 *************** function _RTC_SetDateTime *****************
 Defined at:
		line 51 in file "ds1307.c"
 Parameters:    Size  Location     Type
  rtc             1    wreg     PTR struct .
		 -> main@rtc(7), 
 Auto vars:     Size  Location     Type
  rtc             1    1[COMMON] PTR struct .
		 -> main@rtc(7), 
 Return value:  Size  Location     Type
                  1    wreg      void 
 Registers used:
		wreg, fsr0l, fsr0h, status,2, status,0, pclath, cstack
 Tracked objects:
		On entry : 
		On exit  : 
		Unchanged: 
 Data sizes:     COMMON   BANK0   BANK1   BANK3   BANK2
      Params:         0       0       0       0       0
      Locals:         1       0       0       0       0
      Temps:          0       0       0       0       0
      Totals:         1       0       0       0       0
Total ram usage:        1 bytes
 Hardware stack levels used:    1
 Hardware stack levels required when called:    2
 This function calls:
		_I2C_Master_Start
		_I2C_Master_Stop
		_I2C_Write_Byte
 This function is called by:
		_main
 This function uses a non-reentrant model


 *************** function _RTC_Init *****************
 Defined at:
		line 13 in file "ds1307.c"
 Parameters:    Size  Location     Type
		None
 Auto vars:     Size  Location     Type
		None
 Return value:  Size  Location     Type
                  1    wreg      void 
 Registers used:
		wreg, status,2, status,0, pclath, cstack
 Tracked objects:
		On entry : 
		On exit  : 
		Unchanged: 
 Data sizes:     COMMON   BANK0   BANK1   BANK3   BANK2
      Params:         0       0       0       0       0
      Locals:         0       0       0       0       0
      Temps:          0       0       0       0       0
      Totals:         0       0       0       0       0
Total ram usage:        0 bytes
 Hardware stack levels used:    1
 Hardware stack levels required when called:    2
 This function calls:
		_I2C_Master_Start
		_I2C_Master_Stop
		_I2C_Write_Byte
 This function is called by:
		_main
 This function uses a non-reentrant model


 *************** function _RTC_GetDateTime *****************
 Defined at:
		line 87 in file "ds1307.c"
 Parameters:    Size  Location     Type
  rtc             1    wreg     PTR struct .
		 -> main@rtc(7), 
 Auto vars:     Size  Location     Type
  rtc             1    4[COMMON] PTR struct .
		 -> main@rtc(7), 
 Return value:  Size  Location     Type
                  1    wreg      void 
 Registers used:
		wreg, fsr0l, fsr0h, status,2, status,0, pclath, cstack
 Tracked objects:
		On entry : 
		On exit  : 
		Unchanged: 
 Data sizes:     COMMON   BANK0   BANK1   BANK3   BANK2
      Params:         0       0       0       0       0
      Locals:         1       0       0       0       0
      Temps:          1       0       0       0       0
      Totals:         2       0       0       0       0
Total ram usage:        2 bytes
 Hardware stack levels used:    1
 Hardware stack levels required when called:    2
 This function calls:
		_I2C_Master_Read
		_I2C_Master_Start
		_I2C_Master_Stop
		_I2C_Write_Byte
 This function is called by:
		_main
 This function uses a non-reentrant model


 *************** function _I2C_Write_Byte *****************
 Defined at:
		line 86 in file "I2C.c"
 Parameters:    Size  Location     Type
  data            1    wreg     unsigned char 
 Auto vars:     Size  Location     Type
  data            1    0[COMMON] unsigned char 
 Return value:  Size  Location     Type
                  1    wreg      void 
 Registers used:
		wreg, status,2, status,0, pclath, cstack
 Tracked objects:
		On entry : 
		On exit  : 
		Unchanged: 
 Data sizes:     COMMON   BANK0   BANK1   BANK3   BANK2
      Params:         0       0       0       0       0
      Locals:         1       0       0       0       0
      Temps:          0       0       0       0       0
      Totals:         1       0       0       0       0
Total ram usage:        1 bytes
 Hardware stack levels used:    1
 Hardware stack levels required when called:    1
 This function calls:
		_I2C_Master_Wait
 This function is called by:
		_RTC_Init
		_RTC_SetDateTime
		_RTC_GetDateTime
		_I2C_SendByteByADDR
 This function uses a non-reentrant model


 *************** function _I2C_Master_Stop *****************
 Defined at:
		line 72 in file "I2C.c"
 Parameters:    Size  Location     Type
		None
 Auto vars:     Size  Location     Type
		None
 Return value:  Size  Location     Type
                  1    wreg      void 
 Registers used:
		None
 Tracked objects:
		On entry : 
		On exit  : 
		Unchanged: 
 Data sizes:     COMMON   BANK0   BANK1   BANK3   BANK2
      Params:         0       0       0       0       0
      Locals:         0       0       0       0       0
      Temps:          0       0       0       0       0
      Totals:         0       0       0       0       0
Total ram usage:        0 bytes
 Hardware stack levels used:    1
 This function calls:
		Nothing
 This function is called by:
		_RTC_Init
		_RTC_SetDateTime
		_RTC_GetDateTime
		_I2C_SendByteByADDR
 This function uses a non-reentrant model


 *************** function _I2C_Master_Start *****************
 Defined at:
		line 48 in file "I2C.c"
 Parameters:    Size  Location     Type
		None
 Auto vars:     Size  Location     Type
		None
 Return value:  Size  Location     Type
                  1    wreg      void 
 Registers used:
		None
 Tracked objects:
		On entry : 
		On exit  : 
		Unchanged: 
 Data sizes:     COMMON   BANK0   BANK1   BANK3   BANK2
      Params:         0       0       0       0       0
      Locals:         0       0       0       0       0
      Temps:          0       0       0       0       0
      Totals:         0       0       0       0       0
Total ram usage:        0 bytes
 Hardware stack levels used:    1
 This function calls:
		Nothing
 This function is called by:
		_RTC_Init
		_RTC_SetDateTime
		_RTC_GetDateTime
		_I2C_SendByteByADDR
 This function uses a non-reentrant model


 *************** function _I2C_Master_Read *****************
 Defined at:
		line 107 in file "I2C.c"
 Parameters:    Size  Location     Type
  a               1    wreg     unsigned char 
 Auto vars:     Size  Location     Type
  a               1    1[COMMON] unsigned char 
  v_i2cData_u8    1    2[COMMON] unsigned char 
 Return value:  Size  Location     Type
                  1    wreg      unsigned char 
 Registers used:
		wreg, status,2, status,0, pclath, cstack
 Tracked objects:
		On entry : 
		On exit  : 
		Unchanged: 
 Data sizes:     COMMON   BANK0   BANK1   BANK3   BANK2
      Params:         0       0       0       0       0
      Locals:         2       0       0       0       0
      Temps:          1       0       0       0       0
      Totals:         3       0       0       0       0
Total ram usage:        3 bytes
 Hardware stack levels used:    1
 Hardware stack levels required when called:    1
 This function calls:
		_I2C_Master_Wait
		_i2c_Ack
		_i2c_NoAck
 This function is called by:
		_RTC_GetDateTime
 This function uses a non-reentrant model


 *************** function _i2c_NoAck *****************
 Defined at:
		line 159 in file "I2C.c"
 Parameters:    Size  Location     Type
		None
 Auto vars:     Size  Location     Type
		None
 Return value:  Size  Location     Type
                  1    wreg      void 
 Registers used:
		None
 Tracked objects:
		On entry : 
		On exit  : 
		Unchanged: 
 Data sizes:     COMMON   BANK0   BANK1   BANK3   BANK2
      Params:         0       0       0       0       0
      Locals:         0       0       0       0       0
      Temps:          0       0       0       0       0
      Totals:         0       0       0       0       0
Total ram usage:        0 bytes
 Hardware stack levels used:    1
 This function calls:
		Nothing
 This function is called by:
		_I2C_Master_Read
 This function uses a non-reentrant model


 *************** function _i2c_Ack *****************
 Defined at:
		line 139 in file "I2C.c"
 Parameters:    Size  Location     Type
		None
 Auto vars:     Size  Location     Type
		None
 Return value:  Size  Location     Type
                  1    wreg      void 
 Registers used:
		None
 Tracked objects:
		On entry : 
		On exit  : 
		Unchanged: 
 Data sizes:     COMMON   BANK0   BANK1   BANK3   BANK2
      Params:         0       0       0       0       0
      Locals:         0       0       0       0       0
      Temps:          0       0       0       0       0
      Totals:         0       0       0       0       0
Total ram usage:        0 bytes
 Hardware stack levels used:    1
 This function calls:
		Nothing
 This function is called by:
		_I2C_Master_Read
 This function uses a non-reentrant model


 *************** function _I2C_Master_Wait *****************
 Defined at:
		line 37 in file "I2C.c"
 Parameters:    Size  Location     Type
		None
 Auto vars:     Size  Location     Type
		None
 Return value:  Size  Location     Type
                  1    wreg      void 
 Registers used:
		None
 Tracked objects:
		On entry : 
		On exit  : 
		Unchanged: 
 Data sizes:     COMMON   BANK0   BANK1   BANK3   BANK2
      Params:         0       0       0       0       0
      Locals:         0       0       0       0       0
      Temps:          0       0       0       0       0
      Totals:         0       0       0       0       0
Total ram usage:        0 bytes
 Hardware stack levels used:    1
 This function calls:
		Nothing
 This function is called by:
		_I2C_Write_Byte
		_I2C_Master_Read
 This function uses a non-reentrant model


 *************** function _RTC_ConvertFromDec *****************
 Defined at:
		line 22 in file "main.c"
 Parameters:    Size  Location     Type
  c               1    wreg     unsigned char 
 Auto vars:     Size  Location     Type
  c               1    9[COMMON] unsigned char 
  ch              1    8[COMMON] unsigned char 
 Return value:  Size  Location     Type
                  1    wreg      unsigned char 
 Registers used:
		wreg, status,2, status,0, pclath, cstack
 Tracked objects:
		On entry : 
		On exit  : 
		Unchanged: 
 Data sizes:     COMMON   BANK0   BANK1   BANK3   BANK2
      Params:         0       0       0       0       0
      Locals:         2       0       0       0       0
      Temps:          4       0       0       0       0
      Totals:         6       0       0       0       0
Total ram usage:        6 bytes
 Hardware stack levels used:    1
 Hardware stack levels required when called:    1
 This function calls:
		___bmul
 This function is called by:
		_main
 This function uses a non-reentrant model


 *************** function ___bmul *****************
 Defined at:
		line 4 in file "C:\Program Files (x86)\Microchip\xc8\v1.44\sources\common\Umul8.c"
 Parameters:    Size  Location     Type
  multiplier      1    wreg     unsigned char 
  multiplicand    1    0[COMMON] unsigned char 
 Auto vars:     Size  Location     Type
  multiplier      1    3[COMMON] unsigned char 
  product         1    2[COMMON] unsigned char 
 Return value:  Size  Location     Type
                  1    wreg      unsigned char 
 Registers used:
		wreg, status,2, status,0
 Tracked objects:
		On entry : 
		On exit  : 
		Unchanged: 
 Data sizes:     COMMON   BANK0   BANK1   BANK3   BANK2
      Params:         1       0       0       0       0
      Locals:         2       0       0       0       0
      Temps:          1       0       0       0       0
      Totals:         4       0       0       0       0
Total ram usage:        4 bytes
 Hardware stack levels used:    1
 This function calls:
		Nothing
 This function is called by:
		_RTC_ConvertFromDec
 This function uses a non-reentrant model


 *************** function _I2C_Master_Init *****************
 Defined at:
		line 21 in file "I2C.c"
 Parameters:    Size  Location     Type
  c               4    0[BANK0 ] unsigned long 
 Auto vars:     Size  Location     Type
		None
 Return value:  Size  Location     Type
                  1    wreg      void 
 Registers used:
		wreg, status,2, status,0, pclath, cstack
 Tracked objects:
		On entry : 
		On exit  : 
		Unchanged: 
 Data sizes:     COMMON   BANK0   BANK1   BANK3   BANK2
      Params:         0       4       0       0       0
      Locals:         0       0       0       0       0
      Temps:          0       4       0       0       0
      Totals:         0       8       0       0       0
Total ram usage:        8 bytes
 Hardware stack levels used:    1
 Hardware stack levels required when called:    1
 This function calls:
		___lldiv
 This function is called by:
		_main
 This function uses a non-reentrant model


 *************** function ___lldiv *****************
 Defined at:
		line 6 in file "C:\Program Files (x86)\Microchip\xc8\v1.44\sources\common\lldiv.c"
 Parameters:    Size  Location     Type
  divisor         4    0[COMMON] unsigned long 
  dividend        4    4[COMMON] unsigned long 
 Auto vars:     Size  Location     Type
  quotient        4    9[COMMON] unsigned long 
  counter         1   13[COMMON] unsigned char 
 Return value:  Size  Location     Type
                  4    0[COMMON] unsigned long 
 Registers used:
		wreg, status,2, status,0
 Tracked objects:
		On entry : 
		On exit  : 
		Unchanged: 
 Data sizes:     COMMON   BANK0   BANK1   BANK3   BANK2
      Params:         8       0       0       0       0
      Locals:         5       0       0       0       0
      Temps:          1       0       0       0       0
      Totals:        14       0       0       0       0
Total ram usage:       14 bytes
 Hardware stack levels used:    1
 This function calls:
		Nothing
 This function is called by:
		_I2C_Master_Init
 This function uses a non-reentrant model



MODULE INFORMATION

Module		Function		Class		Link	Load	Size
USART.c
		_Usart_PrintString		CODE           	0350	0000	55
		_Transmit_char 		CODE           	0260	0000	11
		_USART_Init    		CODE           	070D	0000	236

USART.c estimated size: 302

C:\Program Files (x86)\Microchip\xc8\v1.44\sources\common\lwmod.c
		___lwmod       		CODE           	02E8	0000	51

C:\Program Files (x86)\Microchip\xc8\v1.44\sources\common\lwmod.c estimated size: 51

I2C.c
		_i2c_NoAck     		CODE           	0259	0000	8
		_I2C_Master_Read		CODE           	02C8	0000	33
		_I2C_Master_Wait		CODE           	026A	0000	12
		_I2C_Master_Init		CODE           	031A	0000	55
		_I2C_Master_Stop		CODE           	024C	0000	7
		_i2c_Ack       		CODE           	0252	0000	8
		_I2C_Write_Byte		CODE           	0275	0000	14
		_I2C_Master_Start		CODE           	0246	0000	7

I2C.c estimated size: 144

C:\Program Files (x86)\Microchip\xc8\v1.44\sources\common\lwdiv.c
		___lwdiv       		CODE           	0386	0000	61

C:\Program Files (x86)\Microchip\xc8\v1.44\sources\common\lwdiv.c estimated size: 61

C:\Program Files (x86)\Microchip\xc8\v1.44\sources\common\doprnt.c
		_sprintf       		CODE           	0588	0000	190

C:\Program Files (x86)\Microchip\xc8\v1.44\sources\common\doprnt.c estimated size: 190

ds1307.c
		_RTC_GetDateTime		CODE           	047A	0000	128
		_RTC_SetDateTime		CODE           	03C2	0000	91
		_RTC_Init      		CODE           	02AD	0000	28

ds1307.c estimated size: 247

C:\Program Files (x86)\Microchip\xc8\v1.44\sources\common\lldiv.c
		___lldiv       		CODE           	041C	0000	95

C:\Program Files (x86)\Microchip\xc8\v1.44\sources\common\lldiv.c estimated size: 95

C:\Program Files (x86)\Microchip\xc8\v1.44\sources\common\Umul8.c
		___bmul        		CODE           	0282	0000	18

C:\Program Files (x86)\Microchip\xc8\v1.44\sources\common\Umul8.c estimated size: 18

shared
		__stringtab    		STRING         	0003	0000	17
		_dpowers       		STRING         	0013	0000	11
		__initialization		CODE           	07F8	0000	5

shared estimated size: 33

C:\Program Files (x86)\Microchip\xc8\v1.44\sources\common\aldiv.c
		___aldiv       		CODE           	04F9	0000	144

C:\Program Files (x86)\Microchip\xc8\v1.44\sources\common\aldiv.c estimated size: 144

main.c
		_main          		CODE           	0645	0000	201
		_RTC_ConvertFromDec		CODE           	0293	0000	27

main.c estimated size: 228

